target datalayout = "e-m:e-p270:32:32-p271:32:32-p272:64:64-i64:64-i128:128-f80:128-n8:16:32:64-S128"
target triple = "x86_64-pc-linux-gnu"

%class.BoolObjectClosure = type { ptr }
%class.G1HeapRegion = type { ptr, ptr, ptr, ptr, ptr, ptr, i32, %class.G1HeapRegionType, ptr, i32, ptr, ptr, ptr, i64, i32, ptr, i32, i32, i64 }
%class.G1HeapRegionType = type { i32 }
%class.G1IsAliveClosure = type { %class.BoolObjectClosure, ptr, ptr }
%class.TimeInstant = type { %class.CompositeCounterRepresentation }
%class.CompositeCounterRepresentation = type { %class.Representation }
%class.Representation = type { %class.PairRep }
%class.PairRep = type { i64, i64 }
%class.G1HeapRegionClosure.base = type <{ ptr, i8 }>
%"class.G1FullGCPrepareTask::G1PrepareCompactLiveClosure" = type { ptr }
%"class.G1FullGCPrepareTask::G1CalculatePointersClosure" = type { %class.G1HeapRegionClosure.base, ptr, ptr, ptr, ptr }
%class.G1FullCollector = type { ptr, %class.G1FullGCScope, i32, i8, i8, ptr, ptr, %class.GenericTaskQueueSet, %class.GenericTaskQueueSet.7, %class.PreservedMarksSet, %class.G1FullGCCompactionPoint, %class.G1FullGCCompactionPoint, %class.G1IsAliveClosure, %class.ReferenceProcessorIsAliveMutator, ptr, %class.GrowableArrayCHeap, %class.G1FullGCSubjectToDiscoveryClosure, %class.ReferenceProcessorSubjectToDiscoveryMutator, %class.G1FullGCHeapRegionAttr, ptr }
%class.G1FullGCScope = type { [8 x i8], %class.ResourceMark, i8, ptr, %class.SvcGCMarker, %class.STWGCTimer, ptr, %class.IsSTWGCActiveMark, %class.G1FullGCJFRTracerMark, %class.ClearedAllSoftRefs, %class.G1FullGCMonitoringScope, %class.G1HeapPrinterMark, i64 }
%class.ResourceMark = type { %class.ResourceMarkImpl }
%class.ResourceMarkImpl = type { ptr, %"class.ResourceArea::SavedState" }
%"class.ResourceArea::SavedState" = type { ptr, ptr, ptr, i64 }
%class.SvcGCMarker = type { i8, %class.JvmtiGCMarker }
%class.JvmtiGCMarker = type { i8 }
%class.STWGCTimer = type { %class.GCTimer }
%class.GCTimer = type { ptr, %class.TimeInstant, %class.TimeInstant, %class.TimePartitions }
%class.TimePartitions = type { ptr, %class.PhasesStack, %class.TimeInterval, %class.TimeInterval }
%class.PhasesStack = type { [6 x i32], i32 }
%class.TimeInterval = type { %class.CompositeCounterRepresentation }
%class.IsSTWGCActiveMark = type { i8 }
%class.G1FullGCJFRTracerMark = type { %class.G1JFRTracerMark }
%class.G1JFRTracerMark = type { ptr, ptr }
%class.ClearedAllSoftRefs = type { i8, ptr }
%class.G1FullGCMonitoringScope = type { %class.G1MonitoringScope }
%class.G1MonitoringScope = type { ptr, %class.TraceCollectorStats, %class.TraceMemoryManagerStats }
%class.TraceCollectorStats = type { %class.PerfTraceTimedEvent, ptr }
%class.PerfTraceTimedEvent = type { %class.PerfTraceTime, ptr }
%class.PerfTraceTime = type { %class.elapsedTimer, ptr }
%class.elapsedTimer = type <{ i64, i64, i8, [7 x i8] }>
%class.TraceMemoryManagerStats = type { ptr, i32, ptr, i8, i8, i8, i8, i8, i8, i8, i8 }
%class.G1HeapPrinterMark = type { ptr, %class.G1HeapTransition }
%class.G1HeapTransition = type { ptr, %"struct.G1HeapTransition::Data" }
%"struct.G1HeapTransition::Data" = type { i64, i64, i64, i64, %class.MetaspaceCombinedStats, ptr, ptr }
%class.MetaspaceCombinedStats = type { %class.MetaspaceStats, %class.MetaspaceStats, %class.MetaspaceStats }
%class.MetaspaceStats = type { i64, i64, i64 }
%class.GenericTaskQueueSet = type { %class.TaskQueueSetSuperImpl, i32, ptr }
%class.TaskQueueSetSuperImpl = type { %class.TaskQueueSetSuper }
%class.TaskQueueSetSuper = type { ptr }
%class.GenericTaskQueueSet.7 = type { %class.TaskQueueSetSuperImpl, i32, ptr }
%class.PreservedMarksSet = type { i8, i32, ptr }
%class.G1FullGCCompactionPoint = type { ptr, ptr, ptr, ptr, ptr, %class.GrowableArrayIterator }
%class.GrowableArrayIterator = type <{ ptr, i32, [4 x i8] }>
%class.ReferenceProcessorIsAliveMutator = type { ptr, ptr }
%class.GrowableArrayCHeap = type { %class.GrowableArrayWithAllocator.8 }
%class.GrowableArrayWithAllocator.8 = type { %class.GrowableArrayView.4 }
%class.GrowableArrayView.4 = type { %class.GrowableArrayBase, ptr }
%class.GrowableArrayBase = type { i32, i32 }
%class.G1FullGCSubjectToDiscoveryClosure = type { %class.BoolObjectClosure }
%class.ReferenceProcessorSubjectToDiscoveryMutator = type { ptr, ptr }
%class.G1FullGCHeapRegionAttr = type { %class.G1BiasedMappedArray.base.10, [4 x i8] }
%class.G1BiasedMappedArray.base.10 = type { %class.G1BiasedMappedArrayBase.base }
%class.G1BiasedMappedArrayBase.base = type <{ ptr, ptr, ptr, i64, ptr, i64, i32 }>
%class.G1BiasedMappedArrayBase = type <{ ptr, ptr, ptr, i64, ptr, i64, i32, [4 x i8] }>

@_ZN19G1FullGCPrepareTask27G1PrepareCompactLiveClosureC1EP23G1FullGCCompactionPoint = hidden unnamed_addr alias void (ptr, ptr), ptr @_ZN19G1FullGCPrepareTask27G1PrepareCompactLiveClosureC2EP23G1FullGCCompactionPoint

; Function Attrs: mustprogress nounwind uwtable
define linkonce_odr hidden noundef ptr @_ZNK19G1BiasedMappedArrayIhE4baseEv(ptr noundef nonnull align 8 dereferenceable(52) %0) #1 comdat align 2 {
  %2 = alloca ptr, align 8
  store ptr %0, ptr %2, align 8
  %3 = load ptr, ptr %2, align 8
  %4 = getelementptr inbounds %class.G1BiasedMappedArrayBase, ptr %3, i32 0, i32 2
  %5 = load ptr, ptr %4, align 8
  ret ptr %5
}

; Function Attrs: mustprogress nounwind uwtable
define linkonce_odr hidden void @_ZNK23G1BiasedMappedArrayBase12verify_indexEm(ptr noundef nonnull align 8 dereferenceable(52) %0, i64 noundef %1) #1 comdat align 2 {
  %3 = alloca ptr, align 8
  %4 = alloca i64, align 8
  store ptr %0, ptr %3, align 8
  store i64 %1, ptr %4, align 8
  ret void
}

; Function Attrs: mustprogress nounwind uwtable
define linkonce_odr hidden noundef zeroext i8 @_ZNK19G1BiasedMappedArrayIhE12get_by_indexEm(ptr noundef nonnull align 8 dereferenceable(52) %0, i64 noundef %1) #1 comdat align 2 {
  %3 = alloca ptr, align 8
  %4 = alloca i64, align 8
  store ptr %0, ptr %3, align 8
  store i64 %1, ptr %4, align 8
  %5 = load ptr, ptr %3, align 8
  %6 = load i64, ptr %4, align 8
  call void @_ZNK23G1BiasedMappedArrayBase12verify_indexEm(ptr noundef nonnull align 8 dereferenceable(52) %5, i64 noundef %6)
  %7 = call noundef ptr @_ZNK19G1BiasedMappedArrayIhE4baseEv(ptr noundef nonnull align 8 dereferenceable(52) %5)
  %8 = load i64, ptr %4, align 8
  %9 = getelementptr inbounds i8, ptr %7, i64 %8
  %10 = load i8, ptr %9, align 1
  ret i8 %10
}

; Function Attrs: mustprogress nounwind uwtable
define linkonce_odr hidden noundef zeroext i1 @_ZNK22G1FullGCHeapRegionAttr7is_freeEj(ptr noundef nonnull align 8 dereferenceable(52) %0, i32 noundef %1) #1 comdat align 2 {
  %3 = alloca ptr, align 8
  %4 = alloca i32, align 4
  store ptr %0, ptr %3, align 8
  store i32 %1, ptr %4, align 4
  %5 = load ptr, ptr %3, align 8
  %6 = load i32, ptr %4, align 4
  %7 = zext i32 %6 to i64
  %8 = call noundef zeroext i8 @_ZNK19G1BiasedMappedArrayIhE12get_by_indexEm(ptr noundef nonnull align 8 dereferenceable(52) %5, i64 noundef %7)
  %9 = zext i8 %8 to i32
  %10 = icmp eq i32 %9, 2
  ret i1 %10
}

; Function Attrs: mustprogress nounwind uwtable
define linkonce_odr hidden noundef zeroext i1 @_ZNK15G1FullCollector7is_freeEj(ptr noundef nonnull align 8 dereferenceable(824) %0, i32 noundef %1) #1 comdat align 2 {
  %3 = alloca ptr, align 8
  %4 = alloca i32, align 4
  store ptr %0, ptr %3, align 8
  store i32 %1, ptr %4, align 4
  %5 = load ptr, ptr %3, align 8
  %6 = getelementptr inbounds %class.G1FullCollector, ptr %5, i32 0, i32 18
  %7 = load i32, ptr %4, align 4
  %8 = call noundef zeroext i1 @_ZNK22G1FullGCHeapRegionAttr7is_freeEj(ptr noundef nonnull align 8 dereferenceable(52) %6, i32 noundef %7)
  ret i1 %8
}

; Function Attrs: mustprogress nounwind uwtable
define hidden void @_ZN19G1FullGCPrepareTask26G1CalculatePointersClosure22prepare_for_compactionEP12G1HeapRegion(ptr noundef nonnull align 8 dereferenceable(48) %0, ptr noundef %1) #1 align 2 {
  %3 = alloca ptr, align 8
  %4 = alloca ptr, align 8
  %5 = alloca %"class.G1FullGCPrepareTask::G1PrepareCompactLiveClosure", align 8
  store ptr %0, ptr %3, align 8
  store ptr %1, ptr %4, align 8
  %6 = load ptr, ptr %3, align 8
  %7 = getelementptr inbounds %"class.G1FullGCPrepareTask::G1CalculatePointersClosure", ptr %6, i32 0, i32 2
  %8 = load ptr, ptr %7, align 8
  %9 = load ptr, ptr %4, align 8
  %10 = call noundef i32 @_ZNK12G1HeapRegion9hrm_indexEv(ptr noundef nonnull align 8 dereferenceable(136) %9)
  %11 = call noundef zeroext i1 @_ZNK15G1FullCollector7is_freeEj(ptr noundef nonnull align 8 dereferenceable(824) %8, i32 noundef %10)
  br i1 %11, label %18, label %12

12:                                               ; preds = %2
  %13 = getelementptr inbounds %"class.G1FullGCPrepareTask::G1CalculatePointersClosure", ptr %6, i32 0, i32 4
  %14 = load ptr, ptr %13, align 8
  call void @_ZN19G1FullGCPrepareTask27G1PrepareCompactLiveClosureC1EP23G1FullGCCompactionPoint(ptr noundef nonnull align 8 dereferenceable(8) %5, ptr noundef %14)
  %15 = load ptr, ptr %4, align 8
  %16 = getelementptr inbounds %"class.G1FullGCPrepareTask::G1CalculatePointersClosure", ptr %6, i32 0, i32 3
  %17 = load ptr, ptr %16, align 8
  call void @_ZN12G1HeapRegion23apply_to_marked_objectsIN19G1FullGCPrepareTask27G1PrepareCompactLiveClosureEEEvP10G1CMBitMapPT_(ptr noundef nonnull align 8 dereferenceable(136) %15, ptr noundef %17, ptr noundef %5)
  br label %18

18:                                               ; preds = %12, %2
  ret void
}

; Function Attrs: mustprogress nounwind uwtable
define linkonce_odr hidden noundef i32 @_ZNK12G1HeapRegion9hrm_indexEv(ptr noundef nonnull align 8 dereferenceable(136) %0) #1 comdat align 2 {
  %2 = alloca ptr, align 8
  store ptr %0, ptr %2, align 8
  %3 = load ptr, ptr %2, align 8
  %4 = getelementptr inbounds %class.G1HeapRegion, ptr %3, i32 0, i32 6
  %5 = load i32, ptr %4, align 8
  ret i32 %5
}

; Function Attrs: mustprogress nounwind uwtable
define hidden noundef zeroext i1 @_ZN19G1FullGCPrepareTask26G1CalculatePointersClosure14do_heap_regionEP12G1HeapRegion(ptr noundef nonnull align 8 dereferenceable(48) %0, ptr noundef %1) unnamed_addr #1 align 2 {
  %3 = alloca ptr, align 8
  %4 = alloca ptr, align 8
  %5 = alloca i32, align 4
  store ptr %0, ptr %3, align 8
  store ptr %1, ptr %4, align 8
  %6 = load ptr, ptr %3, align 8
  %7 = load ptr, ptr %4, align 8
  %8 = call noundef i32 @_ZNK12G1HeapRegion9hrm_indexEv(ptr noundef nonnull align 8 dereferenceable(136) %7)
  store i32 %8, ptr %5, align 4
  %9 = load ptr, ptr %4, align 8
  call void @_ZN19G1FullGCPrepareTask26G1CalculatePointersClosure22prepare_for_compactionEP12G1HeapRegion(ptr noundef nonnull align 8 dereferenceable(48) %6, ptr noundef %9)
  ret i1 false
}